target datalayout = "e-m:e-p270:32:32-p271:32:32-p272:64:64-i64:64-i128:128-f80:128-n8:16:32:64-S128"
target triple = "x86_64-pc-linux-gnu"

%class.nmethod = type <{ %class.CodeBlob.base, [2 x i8], i64, i64, ptr, %union.anon, ptr, ptr, ptr, ptr, ptr, ptr, ptr, i16, i16, i32, i32, i32, i32, i32, i32, i32, i16, i16, i16, i16, i16, i16, i32, i32, i32, i32, i32, i8, i8, i8, i8, i8, i8, [2 x i8] }>
%class.CodeBlob.base = type <{ ptr, ptr, ptr, i32, i32, i32, i32, i32, i32, i16, i16, i8, i8 }>
%union.anon = type { ptr }
%class.CompiledICLocker = type { ptr, ptr, i8, %class.NoSafepointVerifier }
%class.NoSafepointVerifier = type { ptr }
%class.CompiledDirectCall = type { ptr }
%class.HandleMark = type { ptr, ptr, ptr, ptr, ptr, i64, ptr }

@_ZN6Thread12_thr_currentE = external thread_local global ptr, align 8

; Function Attrs: mustprogress nounwind uwtable
define linkonce_odr hidden noundef ptr @_ZNK17NativeInstruction7addr_atEi(ptr noundef nonnull align 1 dereferenceable(1) %0, i32 noundef %1) #1 comdat align 2 {
  %3 = alloca ptr, align 8
  %4 = alloca i32, align 4
  store ptr %0, ptr %3, align 8
  store i32 %1, ptr %4, align 4
  %5 = load ptr, ptr %3, align 8
  %6 = load i32, ptr %4, align 4
  %7 = sext i32 %6 to i64
  %8 = getelementptr inbounds i8, ptr %5, i64 %7
  ret ptr %8
}

; Function Attrs: mustprogress nounwind uwtable
define linkonce_odr hidden noundef ptr @_ZN6Thread15current_or_nullEv() #1 comdat align 2 {
  %1 = call align 8 ptr @llvm.threadlocal.address.p0(ptr align 8 @_ZN6Thread12_thr_currentE)
  %2 = load ptr, ptr %1, align 8
  ret ptr %2
}

; Function Attrs: mustprogress nounwind uwtable
define linkonce_odr hidden void @_ZN18CompiledDirectCall6verifyEv(ptr noundef nonnull align 8 dereferenceable(8) %0) #1 comdat align 2 {
  %2 = alloca ptr, align 8
  store ptr %0, ptr %2, align 8
  ret void
}

; Function Attrs: mustprogress nounwind uwtable
define linkonce_odr hidden void @_ZN18CompiledDirectCallC2EP10NativeCall(ptr noundef nonnull align 8 dereferenceable(8) %0, ptr noundef %1) unnamed_addr #1 comdat align 2 {
  %3 = alloca ptr, align 8
  %4 = alloca ptr, align 8
  store ptr %0, ptr %3, align 8
  store ptr %1, ptr %4, align 8
  %5 = load ptr, ptr %3, align 8
  %6 = getelementptr inbounds %class.CompiledDirectCall, ptr %5, i32 0, i32 0
  %7 = load ptr, ptr %4, align 8
  store ptr %7, ptr %6, align 8
  ret void
}

; Function Attrs: mustprogress nounwind uwtable
define linkonce_odr hidden noundef ptr @_ZN11ResourceObjnwEm(i64 noundef %0) #1 comdat align 2 {
  %2 = alloca i64, align 8
  store i64 %0, ptr %2, align 8
  %3 = load i64, ptr %2, align 8
  %4 = call noundef ptr @_Z23resource_allocate_bytesmN17AllocFailStrategy13AllocFailEnumE(i64 noundef %3, i32 noundef 0)
  ret ptr %4
}

; Function Attrs: mustprogress nounwind uwtable
define linkonce_odr hidden noundef ptr @_ZNK10NativeCall14return_addressEv(ptr noundef nonnull align 1 dereferenceable(1) %0) #1 comdat align 2 {
  %2 = alloca ptr, align 8
  store ptr %0, ptr %2, align 8
  %3 = load ptr, ptr %2, align 8
  %4 = call noundef ptr @_ZNK17NativeInstruction7addr_atEi(ptr noundef nonnull align 1 dereferenceable(1) %3, i32 noundef 5)
  ret ptr %4
}

; Function Attrs: mustprogress nounwind uwtable
define linkonce_odr hidden noundef ptr @_Z13nativeCall_atPh(ptr noundef %0) #1 comdat {
  %2 = alloca ptr, align 8
  %3 = alloca ptr, align 8
  store ptr %0, ptr %2, align 8
  %4 = load ptr, ptr %2, align 8
  %5 = getelementptr inbounds i8, ptr %4, i64 0
  store ptr %5, ptr %3, align 8
  %6 = load ptr, ptr %3, align 8
  ret ptr %6
}

; Function Attrs: mustprogress nounwind uwtable
define linkonce_odr hidden void @_ZN10HandleMarkC2EP6Thread(ptr noundef nonnull align 8 dereferenceable(56) %0, ptr noundef %1) unnamed_addr #1 comdat align 2 {
  %3 = alloca ptr, align 8
  %4 = alloca ptr, align 8
  store ptr %0, ptr %3, align 8
  store ptr %1, ptr %4, align 8
  %5 = load ptr, ptr %3, align 8
  %6 = load ptr, ptr %4, align 8
  call void @_ZN10HandleMark10initializeEP6Thread(ptr noundef nonnull align 8 dereferenceable(56) %5, ptr noundef %6)
  ret void
}

; Function Attrs: mustprogress nounwind uwtable
define linkonce_odr hidden noundef ptr @_ZN6Thread7currentEv() #1 comdat align 2 {
  %1 = alloca ptr, align 8
  %2 = call noundef ptr @_ZN6Thread15current_or_nullEv()
  store ptr %2, ptr %1, align 8
  %3 = load ptr, ptr %1, align 8
  ret ptr %3
}

; Function Attrs: mustprogress nounwind uwtable
define linkonce_odr hidden noundef ptr @_ZN18CompiledDirectCall2atEPh(ptr noundef %0) #1 comdat align 2 {
  %2 = alloca ptr, align 8
  %3 = alloca ptr, align 8
  store ptr %0, ptr %2, align 8
  %4 = call noundef ptr @_ZN11ResourceObjnwEm(i64 noundef 8)
  %5 = load ptr, ptr %2, align 8
  %6 = call noundef ptr @_Z13nativeCall_atPh(ptr noundef %5)
  call void @_ZN18CompiledDirectCallC2EP10NativeCall(ptr noundef nonnull align 8 dereferenceable(8) %4, ptr noundef %6)
  store ptr %4, ptr %3, align 8
  %7 = load ptr, ptr %3, align 8
  call void @_ZN18CompiledDirectCall6verifyEv(ptr noundef nonnull align 8 dereferenceable(8) %7)
  %8 = load ptr, ptr %3, align 8
  ret ptr %8
}

; Function Attrs: mustprogress nounwind uwtable
define linkonce_odr hidden noundef zeroext i1 @_ZNK7nmethod16is_not_installedEv(ptr noundef nonnull align 8 dereferenceable(214) %0) #1 comdat align 2 {
  %2 = alloca ptr, align 8
  store ptr %0, ptr %2, align 8
  %3 = load ptr, ptr %2, align 8
  %4 = getelementptr inbounds %class.nmethod, ptr %3, i32 0, i32 36
  %5 = load volatile i8, ptr %4, align 1
  %6 = sext i8 %5 to i32
  %7 = icmp eq i32 %6, -1
  ret i1 %7
}

; Function Attrs: mustprogress nounwind uwtable
define hidden void @_ZN7nmethod22verify_interrupt_pointEPhb(ptr noundef nonnull align 8 dereferenceable(214) %0, ptr noundef %1, i1 noundef zeroext %2) #1 align 2 {
  %4 = alloca ptr, align 8
  %5 = alloca ptr, align 8
  %6 = alloca i8, align 1
  %7 = alloca %class.CompiledICLocker, align 8
  %8 = alloca %class.HandleMark, align 8
  %9 = alloca ptr, align 8
  %10 = alloca ptr, align 8
  store ptr %0, ptr %4, align 8
  store ptr %1, ptr %5, align 8
  %11 = zext i1 %2 to i8
  store i8 %11, ptr %6, align 1
  %12 = load ptr, ptr %4, align 8
  %13 = call noundef zeroext i1 @_ZNK7nmethod16is_not_installedEv(ptr noundef nonnull align 8 dereferenceable(214) %12)
  br i1 %13, label %37, label %14

14:                                               ; preds = %3
  %15 = call noundef zeroext i1 @_ZN16CompiledICLocker7is_safeEP7nmethod(ptr noundef %12)
  br i1 %15, label %16, label %26

16:                                               ; preds = %14
  %17 = load i8, ptr %6, align 1
  %18 = trunc i8 %17 to i1
  br i1 %18, label %19, label %22

19:                                               ; preds = %16
  %20 = load ptr, ptr %5, align 8
  %21 = call noundef ptr @_Z13CompiledIC_atP7nmethodPh(ptr noundef %12, ptr noundef %20)
  br label %25

22:                                               ; preds = %16
  %23 = load ptr, ptr %5, align 8
  %24 = call noundef ptr @_ZN18CompiledDirectCall2atEPh(ptr noundef %23)
  br label %25

25:                                               ; preds = %22, %19
  br label %36

26:                                               ; preds = %14
  call void @_ZN16CompiledICLockerC1EP7nmethod(ptr noundef nonnull align 8 dereferenceable(32) %7, ptr noundef %12)
  %27 = load i8, ptr %6, align 1
  %28 = trunc i8 %27 to i1
  br i1 %28, label %29, label %32

29:                                               ; preds = %26
  %30 = load ptr, ptr %5, align 8
  %31 = call noundef ptr @_Z13CompiledIC_atP7nmethodPh(ptr noundef %12, ptr noundef %30)
  br label %35

32:                                               ; preds = %26
  %33 = load ptr, ptr %5, align 8
  %34 = call noundef ptr @_ZN18CompiledDirectCall2atEPh(ptr noundef %33)
  br label %35

35:                                               ; preds = %32, %29
  call void @_ZN16CompiledICLockerD1Ev(ptr noundef nonnull align 8 dereferenceable(32) %7) #7
  br label %36

36:                                               ; preds = %35, %25
  br label %37

37:                                               ; preds = %36, %3
  %38 = call noundef ptr @_ZN6Thread7currentEv()
  call void @_ZN10HandleMarkC2EP6Thread(ptr noundef nonnull align 8 dereferenceable(56) %8, ptr noundef %38)
  %39 = load ptr, ptr %5, align 8
  %40 = call noundef ptr @_Z13nativeCall_atPh(ptr noundef %39)
  %41 = call noundef ptr @_ZNK10NativeCall14return_addressEv(ptr noundef nonnull align 1 dereferenceable(1) %40)
  %42 = call noundef ptr @_ZN7nmethod10pc_desc_atEPh(ptr noundef nonnull align 8 dereferenceable(214) %12, ptr noundef %41)
  store ptr %42, ptr %9, align 8
  %43 = call noundef ptr @_ZN11ResourceObjnwEm(i64 noundef 56)
  %44 = load ptr, ptr %9, align 8
  call void @_ZN9ScopeDescC1EPK7nmethodP6PcDescb(ptr noundef nonnull align 8 dereferenceable(56) %43, ptr noundef %12, ptr noundef %44, i1 noundef zeroext false)
  store ptr %43, ptr %10, align 8
  br label %45

45:                                               ; preds = %51, %37
  %46 = load ptr, ptr %10, align 8
  %47 = call noundef zeroext i1 @_ZNK9ScopeDesc6is_topEv(ptr noundef nonnull align 8 dereferenceable(56) %46)
  %48 = xor i1 %47, true
  br i1 %48, label %49, label %54

49:                                               ; preds = %45
  %50 = load ptr, ptr %10, align 8
  call void @_ZN9ScopeDesc6verifyEv(ptr noundef nonnull align 8 dereferenceable(56) %50)
  br label %51

51:                                               ; preds = %49
  %52 = load ptr, ptr %10, align 8
  %53 = call noundef ptr @_ZNK9ScopeDesc6senderEv(ptr noundef nonnull align 8 dereferenceable(56) %52)
  store ptr %53, ptr %10, align 8
  br label %45, !llvm.loop !52

54:                                               ; preds = %45
  call void @_ZN10HandleMarkD1Ev(ptr noundef nonnull align 8 dereferenceable(56) %8) #7
  ret void
}