; Function Attrs: mustprogress nounwind uwtable
define hidden void @_ZN7nmethod22verify_interrupt_pointEPhb(ptr noundef nonnull align 8 dereferenceable(214) %0, ptr noundef %1, i1 noundef zeroext %2) local_unnamed_addr #0 align 2 {
  %4 = alloca %class.CompiledICLocker, align 8
  %5 = alloca %class.HandleMark, align 8
  %6 = getelementptr inbounds i8, ptr %0, i64 211
  %7 = load volatile i8, ptr %6, align 1
  %8 = icmp eq i8 %7, -1
  br i1 %8, label %22, label %9

9:                                                ; preds = %3
  %10 = tail call noundef zeroext i1 @_ZN16CompiledICLocker7is_safeEP7nmethod(ptr noundef nonnull %0) #23
  br i1 %10, label %11, label %16

11:                                               ; preds = %9
  br i1 %2, label %12, label %14

12:                                               ; preds = %11
  %13 = tail call noundef ptr @_Z13CompiledIC_atP7nmethodPh(ptr noundef nonnull %0, ptr noundef %1) #23
  br label %22

14:                                               ; preds = %11
  %15 = tail call noundef ptr @_Z23resource_allocate_bytesmN17AllocFailStrategy13AllocFailEnumE(i64 noundef 8, i32 noundef 0) #23
  store ptr %1, ptr %15, align 8
  br label %22

16:                                               ; preds = %9
  call void @_ZN16CompiledICLockerC1EP7nmethod(ptr noundef nonnull align 8 dereferenceable(32) %4, ptr noundef nonnull %0) #23
  br i1 %2, label %17, label %19

17:                                               ; preds = %16
  %18 = call noundef ptr @_Z13CompiledIC_atP7nmethodPh(ptr noundef nonnull %0, ptr noundef %1) #23
  br label %21

19:                                               ; preds = %16
  %20 = call noundef ptr @_Z23resource_allocate_bytesmN17AllocFailStrategy13AllocFailEnumE(i64 noundef 8, i32 noundef 0) #23
  store ptr %1, ptr %20, align 8
  br label %21

21:                                               ; preds = %19, %17
  call void @_ZN16CompiledICLockerD1Ev(ptr noundef nonnull align 8 dereferenceable(32) %4) #23
  br label %22

22:                                               ; preds = %21, %14, %12, %3
  %23 = call align 8 ptr @llvm.threadlocal.address.p0(ptr align 8 @_ZN6Thread12_thr_currentE)
  %24 = load ptr, ptr %23, align 8
  call void @_ZN10HandleMark10initializeEP6Thread(ptr noundef nonnull align 8 dereferenceable(56) %5, ptr noundef %24) #23
  %25 = getelementptr inbounds i8, ptr %1, i64 5
  %26 = call noundef ptr @_ZN7nmethod10pc_desc_atEPh(ptr noundef nonnull align 8 dereferenceable(214) %0, ptr noundef nonnull %25)
  %27 = call noundef ptr @_Z23resource_allocate_bytesmN17AllocFailStrategy13AllocFailEnumE(i64 noundef 56, i32 noundef 0) #23
  call void @_ZN9ScopeDescC1EPK7nmethodP6PcDescb(ptr noundef nonnull align 8 dereferenceable(56) %27, ptr noundef nonnull %0, ptr noundef %26, i1 noundef zeroext false) #23
  %28 = call noundef zeroext i1 @_ZNK9ScopeDesc6is_topEv(ptr noundef nonnull align 8 dereferenceable(56) %27) #23
  br i1 %28, label %._crit_edge, label %.lr.ph

.lr.ph:                                           ; preds = %22, %.lr.ph
  %.011 = phi ptr [ %29, %.lr.ph ], [ %27, %22 ]
  call void @_ZN9ScopeDesc6verifyEv(ptr noundef nonnull align 8 dereferenceable(56) %.011) #23
  %29 = call noundef ptr @_ZNK9ScopeDesc6senderEv(ptr noundef nonnull align 8 dereferenceable(56) %.011) #23
  %30 = call noundef zeroext i1 @_ZNK9ScopeDesc6is_topEv(ptr noundef nonnull align 8 dereferenceable(56) %29) #23
  br i1 %30, label %._crit_edge, label %.lr.ph, !llvm.loop !97

._crit_edge:                                      ; preds = %.lr.ph, %22
  call void @_ZN10HandleMarkD1Ev(ptr noundef nonnull align 8 dereferenceable(56) %5) #23
  ret void
}